; Function Attrs: nofree norecurse nosync nounwind memory(argmem: readwrite) uwtable
define dso_local noundef ptr @replus(ptr noundef returned captures(ret: address, provenance) %0) local_unnamed_addr #0 {
  br label %2

2:                                                ; preds = %6, %1
  %indvars.iv = phi i64 [ %indvars.iv.next, %6 ], [ 0, %1 ]
  %3 = getelementptr inbounds nuw i8, ptr %0, i64 %indvars.iv
  %4 = load i8, ptr %3, align 1
  switch i8 %4, label %6 [
    i8 0, label %7
    i8 95, label %5
  ]

5:                                                ; preds = %2
  store i8 32, ptr %3, align 1
  br label %6

6:                                                ; preds = %2, %5
  %indvars.iv.next = add nuw nsw i64 %indvars.iv, 1
  br label %2, !llvm.loop !11

7:                                                ; preds = %2
  ret ptr %0
}